; Function Attrs: nounwind uwtable
define noalias noundef ptr @Aig_ManRegManStart(ptr noundef %0, i32 noundef %1) local_unnamed_addr #0 {
  %calloc = tail call dereferenceable_or_null(80) ptr @calloc(i64 1, i64 80)
  store ptr %0, ptr %calloc, align 8, !tbaa !3
  %3 = tail call ptr @Aig_ManSupportsRegisters(ptr noundef %0) #12
  %4 = getelementptr inbounds nuw i8, ptr %calloc, i64 8
  store ptr %3, ptr %4, align 8, !tbaa !14
  %5 = getelementptr inbounds nuw i8, ptr %calloc, i64 16
  store i32 %1, ptr %5, align 8, !tbaa !15
  %6 = tail call noalias dereferenceable_or_null(16) ptr @malloc(i64 noundef 16) #13
  %7 = getelementptr inbounds nuw i8, ptr %6, i64 4
  store i32 0, ptr %7, align 4, !tbaa !16
  store i32 256, ptr %6, align 8, !tbaa !18
  %8 = tail call noalias dereferenceable_or_null(2048) ptr @malloc(i64 noundef 2048) #13
  %9 = getelementptr inbounds nuw i8, ptr %6, i64 8
  store ptr %8, ptr %9, align 8, !tbaa !19
  %10 = getelementptr inbounds nuw i8, ptr %calloc, i64 24
  store ptr %6, ptr %10, align 8, !tbaa !20
  %11 = tail call noalias dereferenceable_or_null(16) ptr @malloc(i64 noundef 16) #13
  %12 = getelementptr inbounds nuw i8, ptr %11, i64 4
  store i32 0, ptr %12, align 4, !tbaa !21
  store i32 256, ptr %11, align 8, !tbaa !24
  %13 = tail call noalias dereferenceable_or_null(1024) ptr @malloc(i64 noundef 1024) #13
  %14 = getelementptr inbounds nuw i8, ptr %11, i64 8
  store ptr %13, ptr %14, align 8, !tbaa !25
  %15 = getelementptr inbounds nuw i8, ptr %calloc, i64 40
  store ptr %11, ptr %15, align 8, !tbaa !26
  %16 = tail call noalias dereferenceable_or_null(16) ptr @malloc(i64 noundef 16) #13
  %17 = getelementptr inbounds nuw i8, ptr %16, i64 4
  store i32 0, ptr %17, align 4, !tbaa !21
  store i32 256, ptr %16, align 8, !tbaa !24
  %18 = tail call noalias dereferenceable_or_null(1024) ptr @malloc(i64 noundef 1024) #13
  %19 = getelementptr inbounds nuw i8, ptr %16, i64 8
  store ptr %18, ptr %19, align 8, !tbaa !25
  %20 = getelementptr inbounds nuw i8, ptr %calloc, i64 48
  store ptr %16, ptr %20, align 8, !tbaa !27
  %21 = tail call noalias dereferenceable_or_null(16) ptr @malloc(i64 noundef 16) #13
  %22 = getelementptr inbounds nuw i8, ptr %21, i64 4
  store i32 0, ptr %22, align 4, !tbaa !21
  store i32 256, ptr %21, align 8, !tbaa !24
  %23 = tail call noalias dereferenceable_or_null(1024) ptr @malloc(i64 noundef 1024) #13
  %24 = getelementptr inbounds nuw i8, ptr %21, i64 8
  store ptr %23, ptr %24, align 8, !tbaa !25
  %25 = getelementptr inbounds nuw i8, ptr %calloc, i64 56
  store ptr %21, ptr %25, align 8, !tbaa !28
  %26 = tail call noalias dereferenceable_or_null(16) ptr @malloc(i64 noundef 16) #13
  %27 = getelementptr inbounds nuw i8, ptr %26, i64 4
  store i32 0, ptr %27, align 4, !tbaa !29
  store i32 256, ptr %26, align 8, !tbaa !32
  %28 = tail call noalias dereferenceable_or_null(1024) ptr @malloc(i64 noundef 1024) #13
  %29 = getelementptr inbounds nuw i8, ptr %26, i64 8
  store ptr %28, ptr %29, align 8, !tbaa !33
  %30 = getelementptr inbounds nuw i8, ptr %calloc, i64 64
  store ptr %26, ptr %30, align 8, !tbaa !34
  %31 = getelementptr i8, ptr %0, i64 104
  %.val = load i32, ptr %31, align 8, !tbaa !35
  %32 = sext i32 %.val to i64
  %calloc20 = tail call ptr @calloc(i64 1, i64 %32)
  %33 = getelementptr inbounds nuw i8, ptr %calloc, i64 32
  store ptr %calloc20, ptr %33, align 8, !tbaa !44
  %34 = tail call noalias ptr @malloc(i64 noundef %32) #13
  %35 = getelementptr inbounds nuw i8, ptr %calloc, i64 72
  store ptr %34, ptr %35, align 8, !tbaa !45
  ret ptr %calloc
}